Certificate:
    Data:
        Version: 3 (0x2)
        Serial Number: 5306 (0x14ba)
        Signature Algorithm: sha1WithRSAEncryption
        Issuer: C=US, ST=NY, L=New York, O=Bloomberg LP, OU=CTO Office, CN=Bloomberg LP CA/emailAddress=open-tech@bloomberg.net
        Validity
            Not Before: Apr 17 06:00:00 2015 GMT
            Not After : Apr 21 06:00:00 2015 GMT
        Subject: C=US, ST=NY, L=New York, O=Bloomberg LP, OU=CTO Office, CN=hackru_spring_2015_084/emailAddress=open-tech@bloomberg.net
        Subject Public Key Info:
            Public Key Algorithm: rsaEncryption
            RSA Public Key: (1024 bit)
                Modulus (1024 bit):
                    00:c4:29:31:f5:67:5a:14:a5:34:c0:83:8e:02:f2:
                    c9:e1:39:8f:3b:94:a3:ca:27:15:ef:fd:8e:b1:41:
                    ab:bb:23:c6:70:53:2f:80:1c:06:c5:c8:36:ad:75:
                    d3:20:d0:a3:5c:55:da:64:b1:cf:3a:14:94:fb:4d:
                    22:5e:fa:38:36:d9:2d:b6:47:2d:41:a5:59:f6:89:
                    db:48:eb:9e:16:a1:14:43:91:ca:c9:94:20:f4:78:
                    98:e4:78:31:02:9d:17:d7:5c:f2:06:a3:45:b6:e2:
                    d6:1a:12:a6:05:be:06:d8:66:02:8a:48:ba:ad:c6:
                    d2:82:83:f5:d2:59:9f:03:f3
                Exponent: 65537 (0x10001)
        X509v3 extensions:
            X509v3 Basic Constraints: 
                CA:FALSE
            Netscape Comment: 
                Easy-RSA Generated Certificate
            X509v3 Subject Key Identifier: 
                B3:82:69:6E:FD:8C:3D:8C:68:0E:9E:21:56:58:83:B0:62:B6:EA:18
            X509v3 Authority Key Identifier: 
                keyid:F3:21:76:1F:DA:B5:E7:03:FC:ED:D7:71:B8:1C:55:2D:7E:65:5F:14
                DirName:/C=US/ST=NY/L=New York/O=Bloomberg LP/OU=CTO Office/CN=Bloomberg LP CA/emailAddress=open-tech@bloomberg.net
                serial:81:F3:7A:1C:BC:C6:E8:A2

            X509v3 Extended Key Usage: 
                TLS Web Client Authentication
            X509v3 Key Usage: 
                Digital Signature
    Signature Algorithm: sha1WithRSAEncryption
        2f:6b:fd:be:13:9e:55:75:7c:45:05:31:82:40:53:7f:9e:bf:
        0b:3a:8a:59:45:39:e2:73:da:e4:8e:46:21:6b:52:86:2a:96:
        c9:eb:5f:2b:7e:39:18:57:c7:a0:fd:4d:7f:a5:9d:9e:be:7b:
        a6:e0:d7:0e:c3:a3:eb:1a:c6:89:e8:7e:6f:d5:0a:2b:de:85:
        ce:5d:0a:2c:42:1c:e4:51:5f:87:91:81:7c:c4:43:cf:3e:a5:
        29:ee:1a:8e:75:b9:ff:a8:58:43:f9:51:a5:6b:8f:0a:f7:e2:
        13:30:d9:64:98:91:9a:cb:b7:03:6b:69:75:36:7a:60:71:98:
        86:81
-----BEGIN CERTIFICATE-----
MIIECjCCA3OgAwIBAgICFLowDQYJKoZIhvcNAQEFBQAwgZsxCzAJBgNVBAYTAlVT
MQswCQYDVQQIEwJOWTERMA8GA1UEBxMITmV3IFlvcmsxFTATBgNVBAoTDEJsb29t
YmVyZyBMUDETMBEGA1UECxMKQ1RPIE9mZmljZTEYMBYGA1UEAxMPQmxvb21iZXJn
IExQIENBMSYwJAYJKoZIhvcNAQkBFhdvcGVuLXRlY2hAYmxvb21iZXJnLm5ldDAe
Fw0xNTA0MTcwNjAwMDBaFw0xNTA0MjEwNjAwMDBaMIGiMQswCQYDVQQGEwJVUzEL
MAkGA1UECBMCTlkxETAPBgNVBAcTCE5ldyBZb3JrMRUwEwYDVQQKEwxCbG9vbWJl
cmcgTFAxEzARBgNVBAsTCkNUTyBPZmZpY2UxHzAdBgNVBAMUFmhhY2tydV9zcHJp
bmdfMjAxNV8wODQxJjAkBgkqhkiG9w0BCQEWF29wZW4tdGVjaEBibG9vbWJlcmcu
bmV0MIGfMA0GCSqGSIb3DQEBAQUAA4GNADCBiQKBgQDEKTH1Z1oUpTTAg44C8snh
OY87lKPKJxXv/Y6xQau7I8ZwUy+AHAbFyDatddMg0KNcVdpksc86FJT7TSJe+jg2
2S22Ry1BpVn2idtI654WoRRDkcrJlCD0eJjkeDECnRfXXPIGo0W24tYaEqYFvgbY
ZgKKSLqtxtKCg/XSWZ8D8wIDAQABo4IBUjCCAU4wCQYDVR0TBAIwADAtBglghkgB
hvhCAQ0EIBYeRWFzeS1SU0EgR2VuZXJhdGVkIENlcnRpZmljYXRlMB0GA1UdDgQW
BBSzgmlu/Yw9jGgOniFWWIOwYrbqGDCB0AYDVR0jBIHIMIHFgBTzIXYf2rXnA/zt
13G4HFUtfmVfFKGBoaSBnjCBmzELMAkGA1UEBhMCVVMxCzAJBgNVBAgTAk5ZMREw
DwYDVQQHEwhOZXcgWW9yazEVMBMGA1UEChMMQmxvb21iZXJnIExQMRMwEQYDVQQL
EwpDVE8gT2ZmaWNlMRgwFgYDVQQDEw9CbG9vbWJlcmcgTFAgQ0ExJjAkBgkqhkiG
9w0BCQEWF29wZW4tdGVjaEBibG9vbWJlcmcubmV0ggkAgfN6HLzG6KIwEwYDVR0l
BAwwCgYIKwYBBQUHAwIwCwYDVR0PBAQDAgeAMA0GCSqGSIb3DQEBBQUAA4GBAC9r
/b4TnlV1fEUFMYJAU3+evws6illFOeJz2uSORiFrUoYqlsnrXyt+ORhXx6D9TX+l
nZ6+e6bg1w7Do+saxonofm/VCivehc5dCixCHORRX4eRgXzEQ88+pSnuGo51uf+o
WEP5UaVrjwr34hMw2WSYkZrLtwNraXU2emBxmIaB
-----END CERTIFICATE-----
